(dp0
S'show_imports'
p1
I0
sS'prj_name'
p2
S'aMSN2 Documentation'
p3
sS'docformat'
p4
S'epytext'
p5
sS'inheritance'
p6
S'grouped'
p7
sS'help'
p8
NsS'modules'
p9
(S'/media/LinWin/dev/amsn2/amsn2/__init__.py'
p10
S'/media/LinWin/dev/amsn2/amsn2/backend/__init__.py'
p11
S'/media/LinWin/dev/amsn2/amsn2/backend/backend.py'
p12
S'/media/LinWin/dev/amsn2/amsn2/backend/defaultaccountbackend.py'
p13
S'/media/LinWin/dev/amsn2/amsn2/backend/defaultbackend.py'
p14
S'/media/LinWin/dev/amsn2/amsn2/backend/nullbackend.py'
p15
S'/media/LinWin/dev/amsn2/amsn2/core/__init__.py'
p16
S'/media/LinWin/dev/amsn2/amsn2/core/account_manager.py'
p17
S'/media/LinWin/dev/amsn2/amsn2/core/amsn.py'
p18
S'/media/LinWin/dev/amsn2/amsn2/core/config.py'
p19
S'/media/LinWin/dev/amsn2/amsn2/core/contactlist_manager.py'
p20
S'/media/LinWin/dev/amsn2/amsn2/core/conversation.py'
p21
S'/media/LinWin/dev/amsn2/amsn2/core/conversation_manager.py'
p22
S'/media/LinWin/dev/amsn2/amsn2/core/event_manager.py'
p23
S'/media/LinWin/dev/amsn2/amsn2/core/lang.py'
p24
S'/media/LinWin/dev/amsn2/amsn2/core/oim_manager.py'
p25
S'/media/LinWin/dev/amsn2/amsn2/core/personalinfo_manager.py'
p26
S'/media/LinWin/dev/amsn2/amsn2/core/smiley_manager.py'
p27
S'/media/LinWin/dev/amsn2/amsn2/core/theme_manager.py'
p28
S'/media/LinWin/dev/amsn2/amsn2/core/userinterface_manager.py'
p29
S'/media/LinWin/dev/amsn2/amsn2/protocol/__init__.py'
p30
S'/media/LinWin/dev/amsn2/amsn2/protocol/client.py'
p31
S'/media/LinWin/dev/amsn2/amsn2/protocol/events/__init__.py'
p32
S'/media/LinWin/dev/amsn2/amsn2/protocol/events/addressbook.py'
p33
S'/media/LinWin/dev/amsn2/amsn2/protocol/events/client.py'
p34
S'/media/LinWin/dev/amsn2/amsn2/protocol/events/contact.py'
p35
S'/media/LinWin/dev/amsn2/amsn2/protocol/events/conversation.py'
p36
S'/media/LinWin/dev/amsn2/amsn2/protocol/events/invite.py'
p37
S'/media/LinWin/dev/amsn2/amsn2/protocol/events/mailbox.py'
p38
S'/media/LinWin/dev/amsn2/amsn2/protocol/events/oim.py'
p39
S'/media/LinWin/dev/amsn2/amsn2/protocol/events/profile.py'
p40
S'/media/LinWin/dev/amsn2/amsn2/ui/__init__.py'
p41
S'/media/LinWin/dev/amsn2/amsn2/ui/base/__init__.py'
p42
S'/media/LinWin/dev/amsn2/amsn2/ui/base/chat_window.py'
p43
S'/media/LinWin/dev/amsn2/amsn2/ui/base/choosers.py'
p44
S'/media/LinWin/dev/amsn2/amsn2/ui/base/contact_list.py'
p45
S'/media/LinWin/dev/amsn2/amsn2/ui/base/login.py'
p46
S'/media/LinWin/dev/amsn2/amsn2/ui/base/main.py'
p47
S'/media/LinWin/dev/amsn2/amsn2/ui/base/main_loop.py'
p48
S'/media/LinWin/dev/amsn2/amsn2/ui/base/skins.py'
p49
S'/media/LinWin/dev/amsn2/amsn2/ui/base/splash.py'
p50
S'/media/LinWin/dev/amsn2/amsn2/ui/base/utility.py'
p51
S'/media/LinWin/dev/amsn2/amsn2/ui/base/window.py'
p52
S'/media/LinWin/dev/amsn2/amsn2/ui/front_ends/__init__.py'
p53
S'/media/LinWin/dev/amsn2/amsn2/ui/front_ends/qt4/__init__.py'
p54
S'/media/LinWin/dev/amsn2/amsn2/ui/front_ends/qt4/chat_window.py'
p55
S'/media/LinWin/dev/amsn2/amsn2/ui/front_ends/qt4/choosers.py'
p56
S'/media/LinWin/dev/amsn2/amsn2/ui/front_ends/qt4/common.py'
p57
S'/media/LinWin/dev/amsn2/amsn2/ui/front_ends/qt4/contact_delegate.py'
p58
S'/media/LinWin/dev/amsn2/amsn2/ui/front_ends/qt4/contact_list.py'
p59
S'/media/LinWin/dev/amsn2/amsn2/ui/front_ends/qt4/fadingwidget.py'
p60
S'/media/LinWin/dev/amsn2/amsn2/ui/front_ends/qt4/image.py'
p61
S'/media/LinWin/dev/amsn2/amsn2/ui/front_ends/qt4/login.py'
p62
S'/media/LinWin/dev/amsn2/amsn2/ui/front_ends/qt4/main.py'
p63
S'/media/LinWin/dev/amsn2/amsn2/ui/front_ends/qt4/main_loop.py'
p64
S'/media/LinWin/dev/amsn2/amsn2/ui/front_ends/qt4/qt4.py'
p65
S'/media/LinWin/dev/amsn2/amsn2/ui/front_ends/qt4/skins.py'
p66
S'/media/LinWin/dev/amsn2/amsn2/ui/front_ends/qt4/splash.py'
p67
S'/media/LinWin/dev/amsn2/amsn2/ui/front_ends/qt4/styledwidget.py'
p68
S'/media/LinWin/dev/amsn2/amsn2/ui/front_ends/qt4/utility.py'
p69
S'/media/LinWin/dev/amsn2/amsn2/views/__init__.py'
p70
S'/media/LinWin/dev/amsn2/amsn2/views/accountview.py'
p71
S'/media/LinWin/dev/amsn2/amsn2/views/contactlistview.py'
p72
S'/media/LinWin/dev/amsn2/amsn2/views/imageview.py'
p73
S'/media/LinWin/dev/amsn2/amsn2/views/keybindingview.py'
p74
S'/media/LinWin/dev/amsn2/amsn2/views/menuview.py'
p75
S'/media/LinWin/dev/amsn2/amsn2/views/messageview.py'
p76
S'/media/LinWin/dev/amsn2/amsn2/views/personalinfoview.py'
p77
S'/media/LinWin/dev/amsn2/amsn2/views/stringview.py'
p78
S'/media/LinWin/dev/amsn2/amsn2/views/tooltipview.py'
p79
S'/media/LinWin/dev/amsn2/amsn2.py'
p80
tp81
sS'private'
p82
I1
sS'prj_url'
p83
NsS'introspect_or_parse'
p84
S'both'
p85
sS'frames'
p86
I1
sS'css'
p87
S'grayscale'
p88
sS'target'
p89
S'html'
p90
s.